; Function Attrs: mustprogress uwtable
define hidden void @_ZN4lean15initialize_exprEv() local_unnamed_addr #0 personality ptr @__gxx_personality_v0 {
  %1 = alloca %"class.lean::name", align 8
  %2 = tail call fastcc noundef nonnull align 8 dereferenceable(8) ptr @_ZN4leanL9get_dummyEv()
  %3 = tail call noalias noundef nonnull dereferenceable(8) ptr @_Znwm(i64 noundef 8) #18
  call void @llvm.lifetime.start.p0(i64 8, ptr nonnull %1) #16
  store ptr inttoptr (i64 1 to ptr), ptr %1, align 8, !tbaa !10
  invoke void @_ZN4lean4nameC2ERKS0_PKc(ptr noundef nonnull align 8 dereferenceable(8) %3, ptr noundef nonnull align 8 dereferenceable(8) %1, ptr noundef nonnull @.str)
          to label %4 unwind label %.body

4:                                                ; preds = %0
  %5 = load ptr, ptr %1, align 8, !tbaa !10
  %6 = ptrtoint ptr %5 to i64
  %7 = and i64 %6, 1
  %.not.i.i.i = icmp eq i64 %7, 0
  br i1 %.not.i.i.i, label %8, label %19

8:                                                ; preds = %4
  %9 = load i32, ptr %5, align 4, !tbaa !21
  %10 = icmp sgt i32 %9, 1
  br i1 %10, label %11, label %13, !prof !24

11:                                               ; preds = %8
  %12 = add nsw i32 %9, -1
  store i32 %12, ptr %5, align 4, !tbaa !21
  br label %19

13:                                               ; preds = %8
  %.not.i.i.i.i = icmp eq i32 %9, 0
  br i1 %.not.i.i.i.i, label %19, label %14

14:                                               ; preds = %13
  invoke void @lean_dec_ref_cold(ptr noundef nonnull %5)
          to label %19 unwind label %15

15:                                               ; preds = %14
  %16 = landingpad { ptr, i32 }
          catch ptr null
  %17 = extractvalue { ptr, i32 } %16, 0
  call void @__clang_call_terminate(ptr %17) #19
  unreachable

.body:                                            ; preds = %0
  %18 = landingpad { ptr, i32 }
          cleanup
  call void @_ZN4lean10object_refD2Ev(ptr noundef nonnull align 8 dereferenceable(8) %1) #16
  call void @llvm.lifetime.end.p0(i64 8, ptr nonnull %1) #16
  br label %55

19:                                               ; preds = %14, %13, %11, %4
  call void @llvm.lifetime.end.p0(i64 8, ptr nonnull %1) #16
  store ptr %3, ptr @_ZN4leanL14g_default_nameE, align 8, !tbaa !48
  %20 = load ptr, ptr %3, align 8, !tbaa !10
  call void @lean_mark_persistent(ptr noundef %20)
  %21 = call noalias noundef nonnull dereferenceable(8) ptr @_Znwm(i64 noundef 8) #18
  %22 = invoke noundef nonnull align 8 dereferenceable(8) ptr @_ZN4lean12mk_level_oneEv()
          to label %23 unwind label %51

23:                                               ; preds = %19
  call void @llvm.experimental.noalias.scope.decl(metadata !109)
  %24 = load ptr, ptr %22, align 8, !tbaa !10, !noalias !109
  %25 = ptrtoint ptr %24 to i64
  %26 = and i64 %25, 1
  %.not.i.i.i3 = icmp eq i64 %26, 0
  br i1 %.not.i.i.i3, label %27, label %_ZNK4lean10object_ref10to_obj_argEv.exit.i

27:                                               ; preds = %23
  %.val.i.i.i.i = load i32, ptr %24, align 4, !tbaa !21, !noalias !109
  %28 = icmp sgt i32 %.val.i.i.i.i, 0
  br i1 %28, label %29, label %31, !prof !24

29:                                               ; preds = %27
  %30 = add nuw nsw i32 %.val.i.i.i.i, 1
  store i32 %30, ptr %24, align 4, !tbaa !21, !noalias !109
  br label %_ZNK4lean10object_ref10to_obj_argEv.exit.i

31:                                               ; preds = %27
  %.not.i.i.i.i4 = icmp eq i32 %.val.i.i.i.i, 0
  br i1 %.not.i.i.i.i4, label %_ZNK4lean10object_ref10to_obj_argEv.exit.i, label %32

32:                                               ; preds = %31
  invoke void @lean_inc_ref_cold(ptr noundef nonnull %24)
          to label %.noexc unwind label %51

.noexc:                                           ; preds = %32
  %.pre.i.i = load ptr, ptr %22, align 8, !tbaa !10, !noalias !109
  br label %_ZNK4lean10object_ref10to_obj_argEv.exit.i

_ZNK4lean10object_ref10to_obj_argEv.exit.i:       ; preds = %.noexc, %31, %29, %23
  %33 = phi ptr [ %24, %23 ], [ %24, %29 ], [ %24, %31 ], [ %.pre.i.i, %.noexc ]
  %34 = invoke ptr @lean_expr_mk_sort(ptr noundef %33)
          to label %35 unwind label %51

35:                                               ; preds = %_ZNK4lean10object_ref10to_obj_argEv.exit.i
  store ptr %34, ptr %21, align 8, !tbaa !10, !alias.scope !109
  store ptr %21, ptr @_ZN4leanL7g_Type0E, align 8, !tbaa !36
  call void @lean_mark_persistent(ptr noundef %34)
  %36 = call noalias noundef nonnull dereferenceable(8) ptr @_Znwm(i64 noundef 8) #18
  %37 = invoke noundef nonnull align 8 dereferenceable(8) ptr @_ZN4lean13mk_level_zeroEv()
          to label %38 unwind label %53

38:                                               ; preds = %35
  call void @llvm.experimental.noalias.scope.decl(metadata !112)
  %39 = load ptr, ptr %37, align 8, !tbaa !10, !noalias !112
  %40 = ptrtoint ptr %39 to i64
  %41 = and i64 %40, 1
  %.not.i.i.i6 = icmp eq i64 %41, 0
  br i1 %.not.i.i.i6, label %42, label %_ZNK4lean10object_ref10to_obj_argEv.exit.i7

42:                                               ; preds = %38
  %.val.i.i.i.i8 = load i32, ptr %39, align 4, !tbaa !21, !noalias !112
  %43 = icmp sgt i32 %.val.i.i.i.i8, 0
  br i1 %43, label %44, label %46, !prof !24

44:                                               ; preds = %42
  %45 = add nuw nsw i32 %.val.i.i.i.i8, 1
  store i32 %45, ptr %39, align 4, !tbaa !21, !noalias !112
  br label %_ZNK4lean10object_ref10to_obj_argEv.exit.i7

46:                                               ; preds = %42
  %.not.i.i.i.i9 = icmp eq i32 %.val.i.i.i.i8, 0
  br i1 %.not.i.i.i.i9, label %_ZNK4lean10object_ref10to_obj_argEv.exit.i7, label %47

47:                                               ; preds = %46
  invoke void @lean_inc_ref_cold(ptr noundef nonnull %39)
          to label %.noexc11 unwind label %53

.noexc11:                                         ; preds = %47
  %.pre.i.i10 = load ptr, ptr %37, align 8, !tbaa !10, !noalias !112
  br label %_ZNK4lean10object_ref10to_obj_argEv.exit.i7

_ZNK4lean10object_ref10to_obj_argEv.exit.i7:      ; preds = %.noexc11, %46, %44, %38
  %48 = phi ptr [ %39, %38 ], [ %39, %44 ], [ %39, %46 ], [ %.pre.i.i10, %.noexc11 ]
  %49 = invoke ptr @lean_expr_mk_sort(ptr noundef %48)
          to label %50 unwind label %53

50:                                               ; preds = %_ZNK4lean10object_ref10to_obj_argEv.exit.i7
  store ptr %49, ptr %36, align 8, !tbaa !10, !alias.scope !112
  store ptr %36, ptr @_ZN4leanL6g_PropE, align 8, !tbaa !36
  call void @lean_mark_persistent(ptr noundef %49)
  ret void

51:                                               ; preds = %_ZNK4lean10object_ref10to_obj_argEv.exit.i, %32, %19
  %52 = landingpad { ptr, i32 }
          cleanup
  br label %55

53:                                               ; preds = %_ZNK4lean10object_ref10to_obj_argEv.exit.i7, %47, %35
  %54 = landingpad { ptr, i32 }
          cleanup
  br label %55

55:                                               ; preds = %53, %51, %.body
  %.sink = phi ptr [ %36, %53 ], [ %21, %51 ], [ %3, %.body ]
  %.pn = phi { ptr, i32 } [ %54, %53 ], [ %52, %51 ], [ %18, %.body ]
  call void @_ZdlPvm(ptr noundef nonnull %.sink, i64 noundef 8) #20
  resume { ptr, i32 } %.pn
}